target datalayout = "e-m:e-p270:32:32-p271:32:32-p272:64:64-i64:64-i128:128-f80:128-n8:16:32:64-S128"
target triple = "x86_64-unknown-linux-gnu"

%"class.icu_75::UTF16CollationIterator" = type { %"class.icu_75::CollationIterator.base", ptr, ptr, ptr }
%"class.icu_75::CollationIterator.base" = type <{ %"class.icu_75::UObject", ptr, ptr, %"class.icu_75::CollationIterator::CEBuffer", i32, [4 x i8], ptr, i32, i8 }>
%"class.icu_75::UObject" = type { ptr }
%"class.icu_75::CollationIterator::CEBuffer" = type { i32, %"class.icu_75::MaybeStackArray.0" }
%"class.icu_75::MaybeStackArray.0" = type { ptr, i32, i8, [40 x i64] }

; Function Attrs: mustprogress nounwind uwtable
define noundef i32 @_ZNK6icu_7522UTF16CollationIterator9getOffsetEv(ptr noundef nonnull align 8 dereferenceable(416) %this) unnamed_addr #0 align 2 {
entry:
  %this.addr = alloca ptr, align 8
  store ptr %this, ptr %this.addr, align 8
  %this1 = load ptr, ptr %this.addr, align 8
  %pos = getelementptr inbounds %"class.icu_75::UTF16CollationIterator", ptr %this1, i32 0, i32 2
  %0 = load ptr, ptr %pos, align 8
  %start = getelementptr inbounds %"class.icu_75::UTF16CollationIterator", ptr %this1, i32 0, i32 1
  %1 = load ptr, ptr %start, align 8
  %sub.ptr.lhs.cast = ptrtoint ptr %0 to i64
  %sub.ptr.rhs.cast = ptrtoint ptr %1 to i64
  %sub.ptr.sub = sub i64 %sub.ptr.lhs.cast, %sub.ptr.rhs.cast
  %sub.ptr.div = sdiv exact i64 %sub.ptr.sub, 2
  %conv = trunc i64 %sub.ptr.div to i32
  ret i32 %conv
}