; Function Attrs: mustprogress nofree norecurse nosync nounwind willreturn memory(argmem: read) uwtable
define noundef i32 @_ZNK6icu_7522UTF16CollationIterator9getOffsetEv(ptr nocapture noundef nonnull readonly align 8 dereferenceable(416) %this) unnamed_addr #7 align 2 {
entry:
  %pos = getelementptr inbounds i8, ptr %this, i64 400
  %0 = load ptr, ptr %pos, align 8
  %start = getelementptr inbounds i8, ptr %this, i64 392
  %1 = load ptr, ptr %start, align 8
  %sub.ptr.lhs.cast = ptrtoint ptr %0 to i64
  %sub.ptr.rhs.cast = ptrtoint ptr %1 to i64
  %sub.ptr.sub = sub i64 %sub.ptr.lhs.cast, %sub.ptr.rhs.cast
  %sub.ptr.div = lshr exact i64 %sub.ptr.sub, 1
  %conv = trunc i64 %sub.ptr.div to i32
  ret i32 %conv
}